; Function Attrs: inlinehint mustprogress optsize uwtable
define internal noundef ptr @"_ZZN8nanobind6detail11func_createILb0ELb1EZL30nanobind_init_test_holders_extRNS_7module_EE4$_31St10unique_ptrIZL30nanobind_init_test_holders_extS3_E4BaseSt14default_deleteIS6_EEJETpTnmJEJNS_5scopeENS_4nameEEEEP7_objectOT1_PFT2_DpT3_ESt16integer_sequenceImJXspT4_EEEDpRKT5_ENUlPvPSD_PhNS_9rv_policyEPNS0_12cleanup_listEE_8__invokeESR_SS_ST_SU_SW_"(ptr readnone captures(none) %0, ptr readnone captures(none) %1, ptr readnone captures(none) %2, i32 %3, ptr noundef %4) #8 align 2 personality ptr @__gxx_personality_v0 {
  %6 = alloca %"class.std::unique_ptr.460", align 8
  call void @llvm.lifetime.start.p0(i64 8, ptr nonnull %6) #26
  tail call void @llvm.experimental.noalias.scope.decl(metadata !382)
  %7 = tail call noalias noundef nonnull dereferenceable(1) ptr @_Znwm(i64 noundef 1) #29, !noalias !382
  store ptr %7, ptr %6, align 8, !tbaa !385, !alias.scope !382
  %8 = call fastcc ptr @_ZN8nanobind6detail11type_casterISt10unique_ptrIZL30nanobind_init_test_holders_extRNS_7module_EE4BaseSt14default_deleteIS5_EEiE8from_cppIS8_EENS_6handleEOT_NS_9rv_policyEPNS0_12cleanup_listE(ptr noundef nonnull align 8 dereferenceable(8) %6, ptr noundef %4) #27
  %9 = load ptr, ptr %6, align 8, !tbaa !385
  %.not.i = icmp eq ptr %9, null
  br i1 %.not.i, label %_ZNSt10unique_ptrIZL30nanobind_init_test_holders_extRN8nanobind7module_EE4BaseSt14default_deleteIS3_EED2Ev.exit, label %_ZNKSt14default_deleteIZL30nanobind_init_test_holders_extRN8nanobind7module_EE4BaseEclEPS3_.exit.i

_ZNKSt14default_deleteIZL30nanobind_init_test_holders_extRN8nanobind7module_EE4BaseEclEPS3_.exit.i: ; preds = %5
  tail call void @_ZdlPvm(ptr noundef nonnull %9, i64 noundef 1) #30
  br label %_ZNSt10unique_ptrIZL30nanobind_init_test_holders_extRN8nanobind7module_EE4BaseSt14default_deleteIS3_EED2Ev.exit

_ZNSt10unique_ptrIZL30nanobind_init_test_holders_extRN8nanobind7module_EE4BaseSt14default_deleteIS3_EED2Ev.exit: ; preds = %5, %_ZNKSt14default_deleteIZL30nanobind_init_test_holders_extRN8nanobind7module_EE4BaseEclEPS3_.exit.i
  call void @llvm.lifetime.end.p0(i64 8, ptr nonnull %6) #26
  ret ptr %8
}